target datalayout = "e-m:e-p270:32:32-p271:32:32-p272:64:64-i64:64-i128:128-f80:128-n8:16:32:64-S128"
target triple = "x86_64-pc-linux-gnu"

%struct.Codebook = type { i32, i32, ptr, float, float, i8, i8, i8, i8, i32, ptr, ptr, [1024 x i16], ptr, ptr, i32 }

; Function Attrs: nounwind uwtable
define i32 @codebook_decode(ptr noundef %0, ptr noundef %1, ptr noundef %2, i32 noundef %3) #0 {
  %5 = alloca i32, align 4
  %6 = alloca ptr, align 8
  %7 = alloca ptr, align 8
  %8 = alloca ptr, align 8
  %9 = alloca i32, align 4
  %10 = alloca i32, align 4
  %11 = alloca i32, align 4
  %12 = alloca i32, align 4
  %13 = alloca float, align 4
  %14 = alloca float, align 4
  %15 = alloca float, align 4
  store ptr %0, ptr %6, align 8, !tbaa !3
  store ptr %1, ptr %7, align 8, !tbaa !18
  store ptr %2, ptr %8, align 8, !tbaa !58
  store i32 %3, ptr %9, align 4, !tbaa !8
  call void @llvm.lifetime.start.p0(i64 4, ptr %10) #11
  call void @llvm.lifetime.start.p0(i64 4, ptr %11) #11
  %16 = load ptr, ptr %6, align 8, !tbaa !3
  %17 = load ptr, ptr %7, align 8, !tbaa !18
  %18 = call i32 @codebook_decode_start(ptr noundef %16, ptr noundef %17)
  store i32 %18, ptr %11, align 4, !tbaa !8
  %19 = load i32, ptr %11, align 4, !tbaa !8
  %20 = icmp slt i32 %19, 0
  br i1 %20, label %21, label %22

21:                                               ; preds = %4
  store i32 0, ptr %5, align 4
  store i32 1, ptr %12, align 4
  br label %103

22:                                               ; preds = %4
  %23 = load i32, ptr %9, align 4, !tbaa !8
  %24 = load ptr, ptr %7, align 8, !tbaa !18
  %25 = getelementptr inbounds nuw %struct.Codebook, ptr %24, i32 0, i32 0
  %26 = load i32, ptr %25, align 8, !tbaa !101
  %27 = icmp sgt i32 %23, %26
  br i1 %27, label %28, label %32

28:                                               ; preds = %22
  %29 = load ptr, ptr %7, align 8, !tbaa !18
  %30 = getelementptr inbounds nuw %struct.Codebook, ptr %29, i32 0, i32 0
  %31 = load i32, ptr %30, align 8, !tbaa !101
  store i32 %31, ptr %9, align 4, !tbaa !8
  br label %32

32:                                               ; preds = %28, %22
  %33 = load ptr, ptr %7, align 8, !tbaa !18
  %34 = getelementptr inbounds nuw %struct.Codebook, ptr %33, i32 0, i32 0
  %35 = load i32, ptr %34, align 8, !tbaa !101
  %36 = load i32, ptr %11, align 4, !tbaa !8
  %37 = mul nsw i32 %36, %35
  store i32 %37, ptr %11, align 4, !tbaa !8
  %38 = load ptr, ptr %7, align 8, !tbaa !18
  %39 = getelementptr inbounds nuw %struct.Codebook, ptr %38, i32 0, i32 7
  %40 = load i8, ptr %39, align 2, !tbaa !102
  %41 = icmp ne i8 %40, 0
  br i1 %41, label %42, label %75

42:                                               ; preds = %32
  call void @llvm.lifetime.start.p0(i64 4, ptr %13) #11
  store float 0.000000e+00, ptr %13, align 4, !tbaa !28
  store i32 0, ptr %10, align 4, !tbaa !8
  br label %43

43:                                               ; preds = %71, %42
  %44 = load i32, ptr %10, align 4, !tbaa !8
  %45 = load i32, ptr %9, align 4, !tbaa !8
  %46 = icmp slt i32 %44, %45
  br i1 %46, label %47, label %74

47:                                               ; preds = %43
  call void @llvm.lifetime.start.p0(i64 4, ptr %14) #11
  %48 = load ptr, ptr %7, align 8, !tbaa !18
  %49 = getelementptr inbounds nuw %struct.Codebook, ptr %48, i32 0, i32 10
  %50 = load ptr, ptr %49, align 8, !tbaa !103
  %51 = load i32, ptr %11, align 4, !tbaa !8
  %52 = load i32, ptr %10, align 4, !tbaa !8
  %53 = add nsw i32 %51, %52
  %54 = sext i32 %53 to i64
  %55 = getelementptr inbounds float, ptr %50, i64 %54
  %56 = load float, ptr %55, align 4, !tbaa !28
  %57 = load float, ptr %13, align 4, !tbaa !28
  %58 = fadd float %56, %57
  store float %58, ptr %14, align 4, !tbaa !28
  %59 = load float, ptr %14, align 4, !tbaa !28
  %60 = load ptr, ptr %8, align 8, !tbaa !58
  %61 = load i32, ptr %10, align 4, !tbaa !8
  %62 = sext i32 %61 to i64
  %63 = getelementptr inbounds float, ptr %60, i64 %62
  %64 = load float, ptr %63, align 4, !tbaa !28
  %65 = fadd float %64, %59
  store float %65, ptr %63, align 4, !tbaa !28
  %66 = load float, ptr %14, align 4, !tbaa !28
  %67 = load ptr, ptr %7, align 8, !tbaa !18
  %68 = getelementptr inbounds nuw %struct.Codebook, ptr %67, i32 0, i32 3
  %69 = load float, ptr %68, align 8, !tbaa !104
  %70 = fadd float %66, %69
  store float %70, ptr %13, align 4, !tbaa !28
  call void @llvm.lifetime.end.p0(i64 4, ptr %14) #11
  br label %71

71:                                               ; preds = %47
  %72 = load i32, ptr %10, align 4, !tbaa !8
  %73 = add nsw i32 %72, 1
  store i32 %73, ptr %10, align 4, !tbaa !8
  br label %43, !llvm.loop !105

74:                                               ; preds = %43
  call void @llvm.lifetime.end.p0(i64 4, ptr %13) #11
  br label %102

75:                                               ; preds = %32
  call void @llvm.lifetime.start.p0(i64 4, ptr %15) #11
  store float 0.000000e+00, ptr %15, align 4, !tbaa !28
  store i32 0, ptr %10, align 4, !tbaa !8
  br label %76

76:                                               ; preds = %98, %75
  %77 = load i32, ptr %10, align 4, !tbaa !8
  %78 = load i32, ptr %9, align 4, !tbaa !8
  %79 = icmp slt i32 %77, %78
  br i1 %79, label %80, label %101

80:                                               ; preds = %76
  %81 = load ptr, ptr %7, align 8, !tbaa !18
  %82 = getelementptr inbounds nuw %struct.Codebook, ptr %81, i32 0, i32 10
  %83 = load ptr, ptr %82, align 8, !tbaa !103
  %84 = load i32, ptr %11, align 4, !tbaa !8
  %85 = load i32, ptr %10, align 4, !tbaa !8
  %86 = add nsw i32 %84, %85
  %87 = sext i32 %86 to i64
  %88 = getelementptr inbounds float, ptr %83, i64 %87
  %89 = load float, ptr %88, align 4, !tbaa !28
  %90 = load float, ptr %15, align 4, !tbaa !28
  %91 = fadd float %89, %90
  %92 = load ptr, ptr %8, align 8, !tbaa !58
  %93 = load i32, ptr %10, align 4, !tbaa !8
  %94 = sext i32 %93 to i64
  %95 = getelementptr inbounds float, ptr %92, i64 %94
  %96 = load float, ptr %95, align 4, !tbaa !28
  %97 = fadd float %96, %91
  store float %97, ptr %95, align 4, !tbaa !28
  br label %98

98:                                               ; preds = %80
  %99 = load i32, ptr %10, align 4, !tbaa !8
  %100 = add nsw i32 %99, 1
  store i32 %100, ptr %10, align 4, !tbaa !8
  br label %76, !llvm.loop !106

101:                                              ; preds = %76
  call void @llvm.lifetime.end.p0(i64 4, ptr %15) #11
  br label %102

102:                                              ; preds = %101, %74
  store i32 1, ptr %5, align 4
  store i32 1, ptr %12, align 4
  br label %103

103:                                              ; preds = %102, %21
  call void @llvm.lifetime.end.p0(i64 4, ptr %11) #11
  call void @llvm.lifetime.end.p0(i64 4, ptr %10) #11
  %104 = load i32, ptr %5, align 4
  ret i32 %104
}

; Function Attrs: nounwind uwtable
define i32 @codebook_decode_step(ptr noundef %0, ptr noundef %1, ptr noundef %2, i32 noundef %3, i32 noundef %4) #0 {
  %6 = alloca i32, align 4
  %7 = alloca ptr, align 8
  %8 = alloca ptr, align 8
  %9 = alloca ptr, align 8
  %10 = alloca i32, align 4
  %11 = alloca i32, align 4
  %12 = alloca i32, align 4
  %13 = alloca i32, align 4
  %14 = alloca float, align 4
  %15 = alloca i32, align 4
  %16 = alloca float, align 4
  store ptr %0, ptr %7, align 8, !tbaa !3
  store ptr %1, ptr %8, align 8, !tbaa !18
  store ptr %2, ptr %9, align 8, !tbaa !58
  store i32 %3, ptr %10, align 4, !tbaa !8
  store i32 %4, ptr %11, align 4, !tbaa !8
  call void @llvm.lifetime.start.p0(i64 4, ptr %12) #11
  call void @llvm.lifetime.start.p0(i64 4, ptr %13) #11
  %17 = load ptr, ptr %7, align 8, !tbaa !3
  %18 = load ptr, ptr %8, align 8, !tbaa !18
  %19 = call i32 @codebook_decode_start(ptr noundef %17, ptr noundef %18)
  store i32 %19, ptr %13, align 4, !tbaa !8
  call void @llvm.lifetime.start.p0(i64 4, ptr %14) #11
  store float 0.000000e+00, ptr %14, align 4, !tbaa !28
  %20 = load i32, ptr %13, align 4, !tbaa !8
  %21 = icmp slt i32 %20, 0
  br i1 %21, label %22, label %23

22:                                               ; preds = %5
  store i32 0, ptr %6, align 4
  store i32 1, ptr %15, align 4
  br label %75

23:                                               ; preds = %5
  %24 = load i32, ptr %10, align 4, !tbaa !8
  %25 = load ptr, ptr %8, align 8, !tbaa !18
  %26 = getelementptr inbounds nuw %struct.Codebook, ptr %25, i32 0, i32 0
  %27 = load i32, ptr %26, align 8, !tbaa !101
  %28 = icmp sgt i32 %24, %27
  br i1 %28, label %29, label %33

29:                                               ; preds = %23
  %30 = load ptr, ptr %8, align 8, !tbaa !18
  %31 = getelementptr inbounds nuw %struct.Codebook, ptr %30, i32 0, i32 0
  %32 = load i32, ptr %31, align 8, !tbaa !101
  store i32 %32, ptr %10, align 4, !tbaa !8
  br label %33

33:                                               ; preds = %29, %23
  %34 = load ptr, ptr %8, align 8, !tbaa !18
  %35 = getelementptr inbounds nuw %struct.Codebook, ptr %34, i32 0, i32 0
  %36 = load i32, ptr %35, align 8, !tbaa !101
  %37 = load i32, ptr %13, align 4, !tbaa !8
  %38 = mul nsw i32 %37, %36
  store i32 %38, ptr %13, align 4, !tbaa !8
  store i32 0, ptr %12, align 4, !tbaa !8
  br label %39

39:                                               ; preds = %71, %33
  %40 = load i32, ptr %12, align 4, !tbaa !8
  %41 = load i32, ptr %10, align 4, !tbaa !8
  %42 = icmp slt i32 %40, %41
  br i1 %42, label %43, label %74

43:                                               ; preds = %39
  call void @llvm.lifetime.start.p0(i64 4, ptr %16) #11
  %44 = load ptr, ptr %8, align 8, !tbaa !18
  %45 = getelementptr inbounds nuw %struct.Codebook, ptr %44, i32 0, i32 10
  %46 = load ptr, ptr %45, align 8, !tbaa !103
  %47 = load i32, ptr %13, align 4, !tbaa !8
  %48 = load i32, ptr %12, align 4, !tbaa !8
  %49 = add nsw i32 %47, %48
  %50 = sext i32 %49 to i64
  %51 = getelementptr inbounds float, ptr %46, i64 %50
  %52 = load float, ptr %51, align 4, !tbaa !28
  %53 = load float, ptr %14, align 4, !tbaa !28
  %54 = fadd float %52, %53
  store float %54, ptr %16, align 4, !tbaa !28
  %55 = load float, ptr %16, align 4, !tbaa !28
  %56 = load ptr, ptr %9, align 8, !tbaa !58
  %57 = load i32, ptr %12, align 4, !tbaa !8
  %58 = load i32, ptr %11, align 4, !tbaa !8
  %59 = mul nsw i32 %57, %58
  %60 = sext i32 %59 to i64
  %61 = getelementptr inbounds float, ptr %56, i64 %60
  %62 = load float, ptr %61, align 4, !tbaa !28
  %63 = fadd float %62, %55
  store float %63, ptr %61, align 4, !tbaa !28
  %64 = load ptr, ptr %8, align 8, !tbaa !18
  %65 = getelementptr inbounds nuw %struct.Codebook, ptr %64, i32 0, i32 7
  %66 = load i8, ptr %65, align 2, !tbaa !102
  %67 = icmp ne i8 %66, 0
  br i1 %67, label %68, label %70

68:                                               ; preds = %43
  %69 = load float, ptr %16, align 4, !tbaa !28
  store float %69, ptr %14, align 4, !tbaa !28
  br label %70

70:                                               ; preds = %68, %43
  call void @llvm.lifetime.end.p0(i64 4, ptr %16) #11
  br label %71

71:                                               ; preds = %70
  %72 = load i32, ptr %12, align 4, !tbaa !8
  %73 = add nsw i32 %72, 1
  store i32 %73, ptr %12, align 4, !tbaa !8
  br label %39, !llvm.loop !107

74:                                               ; preds = %39
  store i32 1, ptr %6, align 4
  store i32 1, ptr %15, align 4
  br label %75

75:                                               ; preds = %74, %22
  call void @llvm.lifetime.end.p0(i64 4, ptr %14) #11
  call void @llvm.lifetime.end.p0(i64 4, ptr %13) #11
  call void @llvm.lifetime.end.p0(i64 4, ptr %12) #11
  %76 = load i32, ptr %6, align 4
  ret i32 %76
}

; Function Attrs: nounwind uwtable
define i32 @residue_decode(ptr noundef %0, ptr noundef %1, ptr noundef %2, i32 noundef %3, i32 noundef %4, i32 noundef %5) #0 {
  %7 = alloca i32, align 4
  %8 = alloca ptr, align 8
  %9 = alloca ptr, align 8
  %10 = alloca ptr, align 8
  %11 = alloca i32, align 4
  %12 = alloca i32, align 4
  %13 = alloca i32, align 4
  %14 = alloca i32, align 4
  %15 = alloca i32, align 4
  %16 = alloca i32, align 4
  store ptr %0, ptr %8, align 8, !tbaa !3
  store ptr %1, ptr %9, align 8, !tbaa !18
  store ptr %2, ptr %10, align 8, !tbaa !58
  store i32 %3, ptr %11, align 4, !tbaa !8
  store i32 %4, ptr %12, align 4, !tbaa !8
  store i32 %5, ptr %13, align 4, !tbaa !8
  call void @llvm.lifetime.start.p0(i64 4, ptr %14) #11
  %17 = load i32, ptr %13, align 4, !tbaa !8
  %18 = icmp eq i32 %17, 0
  br i1 %18, label %19, label %56

19:                                               ; preds = %6
  call void @llvm.lifetime.start.p0(i64 4, ptr %15) #11
  %20 = load i32, ptr %12, align 4, !tbaa !8
  %21 = load ptr, ptr %9, align 8, !tbaa !18
  %22 = getelementptr inbounds nuw %struct.Codebook, ptr %21, i32 0, i32 0
  %23 = load i32, ptr %22, align 8, !tbaa !101
  %24 = sdiv i32 %20, %23
  store i32 %24, ptr %15, align 4, !tbaa !8
  store i32 0, ptr %14, align 4, !tbaa !8
  br label %25

25:                                               ; preds = %49, %19
  %26 = load i32, ptr %14, align 4, !tbaa !8
  %27 = load i32, ptr %15, align 4, !tbaa !8
  %28 = icmp slt i32 %26, %27
  br i1 %28, label %29, label %52

29:                                               ; preds = %25
  %30 = load ptr, ptr %8, align 8, !tbaa !3
  %31 = load ptr, ptr %9, align 8, !tbaa !18
  %32 = load ptr, ptr %10, align 8, !tbaa !58
  %33 = load i32, ptr %11, align 4, !tbaa !8
  %34 = sext i32 %33 to i64
  %35 = getelementptr inbounds float, ptr %32, i64 %34
  %36 = load i32, ptr %14, align 4, !tbaa !8
  %37 = sext i32 %36 to i64
  %38 = getelementptr inbounds float, ptr %35, i64 %37
  %39 = load i32, ptr %12, align 4, !tbaa !8
  %40 = load i32, ptr %11, align 4, !tbaa !8
  %41 = sub nsw i32 %39, %40
  %42 = load i32, ptr %14, align 4, !tbaa !8
  %43 = sub nsw i32 %41, %42
  %44 = load i32, ptr %15, align 4, !tbaa !8
  %45 = call i32 @codebook_decode_step(ptr noundef %30, ptr noundef %31, ptr noundef %38, i32 noundef %43, i32 noundef %44)
  %46 = icmp ne i32 %45, 0
  br i1 %46, label %48, label %47

47:                                               ; preds = %29
  store i32 0, ptr %7, align 4
  store i32 1, ptr %16, align 4
  br label %53

48:                                               ; preds = %29
  br label %49

49:                                               ; preds = %48
  %50 = load i32, ptr %14, align 4, !tbaa !8
  %51 = add nsw i32 %50, 1
  store i32 %51, ptr %14, align 4, !tbaa !8
  br label %25, !llvm.loop !113

52:                                               ; preds = %25
  store i32 0, ptr %16, align 4
  br label %53

53:                                               ; preds = %52, %47
  call void @llvm.lifetime.end.p0(i64 4, ptr %15) #11
  %54 = load i32, ptr %16, align 4
  switch i32 %54, label %87 [
    i32 0, label %55
  ]

55:                                               ; preds = %53
  br label %86

56:                                               ; preds = %6
  store i32 0, ptr %14, align 4, !tbaa !8
  br label %57

57:                                               ; preds = %74, %56
  %58 = load i32, ptr %14, align 4, !tbaa !8
  %59 = load i32, ptr %12, align 4, !tbaa !8
  %60 = icmp slt i32 %58, %59
  br i1 %60, label %61, label %85

61:                                               ; preds = %57
  %62 = load ptr, ptr %8, align 8, !tbaa !3
  %63 = load ptr, ptr %9, align 8, !tbaa !18
  %64 = load ptr, ptr %10, align 8, !tbaa !58
  %65 = load i32, ptr %11, align 4, !tbaa !8
  %66 = sext i32 %65 to i64
  %67 = getelementptr inbounds float, ptr %64, i64 %66
  %68 = load i32, ptr %12, align 4, !tbaa !8
  %69 = load i32, ptr %14, align 4, !tbaa !8
  %70 = sub nsw i32 %68, %69
  %71 = call i32 @codebook_decode(ptr noundef %62, ptr noundef %63, ptr noundef %67, i32 noundef %70)
  %72 = icmp ne i32 %71, 0
  br i1 %72, label %74, label %73

73:                                               ; preds = %61
  store i32 0, ptr %7, align 4
  store i32 1, ptr %16, align 4
  br label %87

74:                                               ; preds = %61
  %75 = load ptr, ptr %9, align 8, !tbaa !18
  %76 = getelementptr inbounds nuw %struct.Codebook, ptr %75, i32 0, i32 0
  %77 = load i32, ptr %76, align 8, !tbaa !101
  %78 = load i32, ptr %14, align 4, !tbaa !8
  %79 = add nsw i32 %78, %77
  store i32 %79, ptr %14, align 4, !tbaa !8
  %80 = load ptr, ptr %9, align 8, !tbaa !18
  %81 = getelementptr inbounds nuw %struct.Codebook, ptr %80, i32 0, i32 0
  %82 = load i32, ptr %81, align 8, !tbaa !101
  %83 = load i32, ptr %11, align 4, !tbaa !8
  %84 = add nsw i32 %83, %82
  store i32 %84, ptr %11, align 4, !tbaa !8
  br label %57, !llvm.loop !114

85:                                               ; preds = %57
  br label %86

86:                                               ; preds = %85, %55
  store i32 1, ptr %7, align 4
  store i32 1, ptr %16, align 4
  br label %87

87:                                               ; preds = %86, %73, %53
  call void @llvm.lifetime.end.p0(i64 4, ptr %14) #11
  %88 = load i32, ptr %7, align 4
  ret i32 %88
}