; Function Attrs: nofree nounwind uwtable
define range(i32 0, 2) i32 @residue_decode(ptr noundef captures(none) %0, ptr noundef readonly captures(none) %1, ptr noundef captures(none) %2, i32 noundef %3, i32 noundef %4, i32 noundef %5) local_unnamed_addr #17 {
  %7 = icmp eq i32 %5, 0
  br i1 %7, label %12, label %.preheader

.preheader:                                       ; preds = %6
  %8 = icmp sgt i32 %4, 0
  br i1 %8, label %.lr.ph, label %codebook_decode_step.exit

.lr.ph:                                           ; preds = %.preheader
  %9 = getelementptr inbounds nuw i8, ptr %1, i64 26
  %10 = getelementptr inbounds nuw i8, ptr %1, i64 32
  %11 = getelementptr inbounds nuw i8, ptr %1, i64 16
  br label %46

12:                                               ; preds = %6
  %13 = load i32, ptr %1, align 8, !tbaa !91
  %14 = sdiv i32 %4, %13
  %15 = sext i32 %3 to i64
  %16 = getelementptr inbounds float, ptr %2, i64 %15
  %.not3558 = icmp sgt i32 %14, 0
  br i1 %.not3558, label %.lr.ph60, label %codebook_decode_step.exit

.lr.ph60:                                         ; preds = %12
  %17 = getelementptr inbounds nuw i8, ptr %1, i64 32
  %18 = getelementptr inbounds nuw i8, ptr %1, i64 26
  %19 = zext nneg i32 %14 to i64
  br label %20

20:                                               ; preds = %.lr.ph60, %.loopexit
  %indvars.iv = phi i64 [ 0, %.lr.ph60 ], [ %indvars.iv.next, %.loopexit ]
  %21 = getelementptr inbounds nuw float, ptr %16, i64 %indvars.iv
  %22 = tail call i32 @codebook_decode_start(ptr noundef %0, ptr noundef nonnull readonly %1)
  %23 = icmp slt i32 %22, 0
  br i1 %23, label %codebook_decode_step.exit, label %24

24:                                               ; preds = %20
  %25 = trunc nuw nsw i64 %indvars.iv to i32
  %26 = add i32 %3, %25
  %27 = sub i32 %4, %26
  %28 = load i32, ptr %1, align 8, !tbaa !91
  %spec.select.i = tail call i32 @llvm.smin.i32(i32 %27, i32 %28)
  %29 = icmp sgt i32 %spec.select.i, 0
  br i1 %29, label %.lr.ph.i, label %.loopexit

.lr.ph.i:                                         ; preds = %24
  %30 = mul nsw i32 %28, %22
  %31 = load ptr, ptr %17, align 8, !tbaa !93
  %32 = load i8, ptr %18, align 2, !tbaa !92
  %.fr.i = freeze i8 %32
  %.not.i = icmp eq i8 %.fr.i, 0
  %33 = sext i32 %30 to i64
  %wide.trip.count34.i = zext nneg i32 %spec.select.i to i64
  %invariant.gep37.i = getelementptr float, ptr %31, i64 %33
  br i1 %.not.i, label %.lr.ph.split.us.i, label %.lr.ph.split.i

.lr.ph.split.us.i:                                ; preds = %.lr.ph.i, %.lr.ph.split.us.i
  %indvars.iv31.i = phi i64 [ %indvars.iv.next32.i, %.lr.ph.split.us.i ], [ 0, %.lr.ph.i ]
  %gep38.i = getelementptr float, ptr %invariant.gep37.i, i64 %indvars.iv31.i
  %34 = load float, ptr %gep38.i, align 4, !tbaa !48
  %35 = fadd float %34, 0.000000e+00
  %36 = mul nuw nsw i64 %indvars.iv31.i, %19
  %37 = getelementptr inbounds nuw float, ptr %21, i64 %36
  %38 = load float, ptr %37, align 4, !tbaa !48
  %39 = fadd float %38, %35
  store float %39, ptr %37, align 4, !tbaa !48
  %indvars.iv.next32.i = add nuw nsw i64 %indvars.iv31.i, 1
  %exitcond35.not.i = icmp eq i64 %indvars.iv.next32.i, %wide.trip.count34.i
  br i1 %exitcond35.not.i, label %.loopexit, label %.lr.ph.split.us.i, !llvm.loop !97

.lr.ph.split.i:                                   ; preds = %.lr.ph.i, %.lr.ph.split.i
  %indvars.iv.i = phi i64 [ %indvars.iv.next.i, %.lr.ph.split.i ], [ 0, %.lr.ph.i ]
  %.02128.i = phi float [ %41, %.lr.ph.split.i ], [ 0.000000e+00, %.lr.ph.i ]
  %gep.i = getelementptr float, ptr %invariant.gep37.i, i64 %indvars.iv.i
  %40 = load float, ptr %gep.i, align 4, !tbaa !48
  %41 = fadd float %.02128.i, %40
  %42 = mul nuw nsw i64 %indvars.iv.i, %19
  %43 = getelementptr inbounds nuw float, ptr %21, i64 %42
  %44 = load float, ptr %43, align 4, !tbaa !48
  %45 = fadd float %44, %41
  store float %45, ptr %43, align 4, !tbaa !48
  %indvars.iv.next.i = add nuw nsw i64 %indvars.iv.i, 1
  %exitcond.not.i = icmp eq i64 %indvars.iv.next.i, %wide.trip.count34.i
  br i1 %exitcond.not.i, label %.loopexit, label %.lr.ph.split.i, !llvm.loop !97

.loopexit:                                        ; preds = %.lr.ph.split.i, %.lr.ph.split.us.i, %24
  %indvars.iv.next = add nuw nsw i64 %indvars.iv, 1
  %exitcond.not = icmp eq i64 %indvars.iv.next, %19
  br i1 %exitcond.not, label %codebook_decode_step.exit, label %20, !llvm.loop !101

46:                                               ; preds = %.lr.ph, %.loopexit50
  %.13055 = phi i32 [ 0, %.lr.ph ], [ %75, %.loopexit50 ]
  %.03154 = phi i32 [ %3, %.lr.ph ], [ %76, %.loopexit50 ]
  %47 = sext i32 %.03154 to i64
  %48 = getelementptr inbounds float, ptr %2, i64 %47
  %49 = tail call i32 @codebook_decode_start(ptr noundef %0, ptr noundef readonly %1)
  %50 = icmp slt i32 %49, 0
  br i1 %50, label %codebook_decode_step.exit, label %51

51:                                               ; preds = %46
  %52 = sub nsw i32 %4, %.13055
  %53 = load i32, ptr %1, align 8, !tbaa !91
  %spec.select.i36 = tail call i32 @llvm.smin.i32(i32 %52, i32 %53)
  %54 = mul nsw i32 %53, %49
  %55 = load i8, ptr %9, align 2, !tbaa !92
  %.not.i37 = icmp eq i8 %55, 0
  %56 = icmp sgt i32 %spec.select.i36, 0
  br i1 %.not.i37, label %.preheader.i, label %.preheader36.i

.preheader36.i:                                   ; preds = %51
  br i1 %56, label %.lr.ph.i39, label %.loopexit50

.lr.ph.i39:                                       ; preds = %.preheader36.i
  %57 = load ptr, ptr %10, align 8, !tbaa !93
  %58 = sext i32 %54 to i64
  %wide.trip.count.i = zext nneg i32 %spec.select.i36 to i64
  %invariant.gep.i = getelementptr float, ptr %57, i64 %58
  br label %61

.preheader.i:                                     ; preds = %51
  br i1 %56, label %.lr.ph41.i, label %.loopexit50

.lr.ph41.i:                                       ; preds = %.preheader.i
  %59 = load ptr, ptr %10, align 8, !tbaa !93
  %60 = sext i32 %54 to i64
  %wide.trip.count47.i = zext nneg i32 %spec.select.i36 to i64
  %invariant.gep50.i = getelementptr float, ptr %59, i64 %60
  br label %69

61:                                               ; preds = %61, %.lr.ph.i39
  %indvars.iv.i40 = phi i64 [ 0, %.lr.ph.i39 ], [ %indvars.iv.next.i42, %61 ]
  %.03139.i = phi float [ 0.000000e+00, %.lr.ph.i39 ], [ %68, %61 ]
  %gep.i41 = getelementptr float, ptr %invariant.gep.i, i64 %indvars.iv.i40
  %62 = load float, ptr %gep.i41, align 4, !tbaa !48
  %63 = fadd float %.03139.i, %62
  %64 = getelementptr inbounds nuw float, ptr %48, i64 %indvars.iv.i40
  %65 = load float, ptr %64, align 4, !tbaa !48
  %66 = fadd float %65, %63
  store float %66, ptr %64, align 4, !tbaa !48
  %67 = load float, ptr %11, align 8, !tbaa !94
  %68 = fadd float %63, %67
  %indvars.iv.next.i42 = add nuw nsw i64 %indvars.iv.i40, 1
  %exitcond.not.i43 = icmp eq i64 %indvars.iv.next.i42, %wide.trip.count.i
  br i1 %exitcond.not.i43, label %.loopexit50, label %61, !llvm.loop !95

69:                                               ; preds = %69, %.lr.ph41.i
  %indvars.iv44.i = phi i64 [ 0, %.lr.ph41.i ], [ %indvars.iv.next45.i, %69 ]
  %gep51.i = getelementptr float, ptr %invariant.gep50.i, i64 %indvars.iv44.i
  %70 = load float, ptr %gep51.i, align 4, !tbaa !48
  %71 = fadd float %70, 0.000000e+00
  %72 = getelementptr inbounds nuw float, ptr %48, i64 %indvars.iv44.i
  %73 = load float, ptr %72, align 4, !tbaa !48
  %74 = fadd float %73, %71
  store float %74, ptr %72, align 4, !tbaa !48
  %indvars.iv.next45.i = add nuw nsw i64 %indvars.iv44.i, 1
  %exitcond48.not.i = icmp eq i64 %indvars.iv.next45.i, %wide.trip.count47.i
  br i1 %exitcond48.not.i, label %.loopexit50, label %69, !llvm.loop !96

.loopexit50:                                      ; preds = %61, %69, %.preheader.i, %.preheader36.i
  %75 = add nsw i32 %53, %.13055
  %76 = add nsw i32 %53, %.03154
  %77 = icmp slt i32 %75, %4
  br i1 %77, label %46, label %codebook_decode_step.exit, !llvm.loop !102

codebook_decode_step.exit:                        ; preds = %46, %.loopexit50, %20, %.loopexit, %.preheader, %12
  %.1 = phi i32 [ 1, %12 ], [ 1, %.preheader ], [ 0, %20 ], [ 1, %.loopexit ], [ 0, %46 ], [ 1, %.loopexit50 ]
  ret i32 %.1
}